Certificate Request:
    Data:
        Version: 0 (0x0)
        Subject: C=BR, ST=Rio de Janeiro, L=Mage, O=Qzumba - security chat relay, OU=Security, CN=zumbi.loc/emailAddress=admin@zumbi.loc
        Subject Public Key Info:
            Public Key Algorithm: rsaEncryption
                Public-Key: (2048 bit)
                Modulus:
                    00:b3:de:2e:3e:5d:93:99:fd:d6:a7:82:c7:27:1e:
                    4d:22:70:a2:91:2a:02:47:27:cc:aa:3b:ac:11:06:
                    c8:94:ff:69:53:16:ee:3e:0f:c6:15:8e:92:63:e2:
                    bb:2b:ed:01:81:bc:e4:1d:1c:d7:3d:59:b8:bf:92:
                    1e:53:5f:11:f2:b1:13:eb:04:83:78:9e:4f:6e:ef:
                    11:f1:df:ae:99:b2:51:53:b5:c8:ec:45:21:88:bb:
                    9f:ca:86:95:58:8a:f4:5a:8a:fe:65:86:69:e8:37:
                    8a:31:8d:5c:e8:44:8f:94:ed:aa:cf:b7:d5:9f:5d:
                    b9:35:68:ae:84:89:51:ea:37:f4:61:93:bf:e4:46:
                    63:34:4c:e8:22:e0:89:89:70:1f:59:f5:f7:ba:d1:
                    f3:f0:43:2e:76:89:a8:ee:ec:3e:ed:a3:c6:7d:8c:
                    c0:72:44:eb:b4:cb:9e:a7:4b:41:31:87:e5:ff:70:
                    c2:ee:bd:ea:d9:44:7f:a1:32:52:5e:9e:93:e8:ed:
                    57:63:13:cb:77:ff:7f:cd:c0:08:fb:dc:27:9d:ca:
                    a4:78:6e:b6:6b:a8:23:9e:76:b7:ef:ec:db:29:e4:
                    c5:52:3a:e3:e1:23:25:78:8a:48:59:9f:5a:a2:4c:
                    0a:ed:f3:32:6f:d3:10:a0:13:72:a6:62:8e:f6:3f:
                    9e:5f
                Exponent: 65537 (0x10001)
        Attributes:
            a0:00
    Signature Algorithm: sha512WithRSAEncryption
         85:00:18:65:cf:94:ee:10:00:17:15:9d:b2:8d:2b:c4:96:a2:
         5e:2c:ac:36:ff:2a:50:27:02:c2:13:d2:cc:1e:3e:a4:eb:b2:
         dd:b4:a4:95:51:ef:07:b9:36:62:f4:a3:7d:43:ea:68:d9:23:
         96:3c:db:e9:41:23:56:58:7f:17:7c:4b:89:8e:74:30:5a:cc:
         7e:1a:09:7d:53:d6:40:b9:de:ba:cd:28:7c:32:49:0c:cb:6f:
         ce:ec:c4:79:fa:61:91:f0:1a:3c:a1:87:ed:81:f2:95:89:b6:
         b2:bf:99:ef:21:0c:18:cf:4f:fc:ac:82:98:94:2f:fb:d0:30:
         cc:a6:98:b9:20:9b:db:31:ea:41:0f:fc:fe:14:f4:5a:9a:49:
         a9:a0:00:1b:98:f1:41:66:79:39:04:91:d7:c4:70:e8:a4:f6:
         61:0c:8a:1a:79:ca:fb:19:40:51:0a:3d:e7:19:d7:b7:e7:7a:
         ee:b1:c5:c0:9b:19:2d:cd:a1:a9:8a:d7:bf:58:2c:4c:52:4c:
         06:71:cb:69:63:45:3f:79:12:16:12:73:be:b2:38:74:c0:48:
         10:a2:50:36:33:ee:08:f5:42:df:47:70:da:26:7c:1d:21:eb:
         47:d9:63:a1:11:d1:31:60:8e:42:30:19:a3:f3:2d:ab:37:9d:
         2e:8c:11:58
-----BEGIN CERTIFICATE REQUEST-----
MIIC6TCCAdECAQAwgaMxCzAJBgNVBAYTAkJSMRcwFQYDVQQIDA5SaW8gZGUgSmFu
ZWlybzENMAsGA1UEBwwETWFnZTElMCMGA1UECgwcUXp1bWJhIC0gc2VjdXJpdHkg
Y2hhdCByZWxheTERMA8GA1UECwwIU2VjdXJpdHkxEjAQBgNVBAMMCXp1bWJpLmxv
YzEeMBwGCSqGSIb3DQEJARYPYWRtaW5AenVtYmkubG9jMIIBIjANBgkqhkiG9w0B
AQEFAAOCAQ8AMIIBCgKCAQEAs94uPl2Tmf3Wp4LHJx5NInCikSoCRyfMqjusEQbI
lP9pUxbuPg/GFY6SY+K7K+0BgbzkHRzXPVm4v5IeU18R8rET6wSDeJ5Pbu8R8d+u
mbJRU7XI7EUhiLufyoaVWIr0Wor+ZYZp6DeKMY1c6ESPlO2qz7fVn125NWiuhIlR
6jf0YZO/5EZjNEzoIuCJiXAfWfX3utHz8EMudomo7uw+7aPGfYzAckTrtMuep0tB
MYfl/3DC7r3q2UR/oTJSXp6T6O1XYxPLd/9/zcAI+9wnncqkeG62a6gjnna37+zb
KeTFUjrj4SMleIpIWZ9aokwK7fMyb9MQoBNypmKO9j+eXwIDAQABoAAwDQYJKoZI
hvcNAQENBQADggEBAIUAGGXPlO4QABcVnbKNK8SWol4srDb/KlAnAsIT0swePqTr
st20pJVR7we5NmL0o31D6mjZI5Y82+lBI1ZYfxd8S4mOdDBazH4aCX1T1kC53rrN
KHwySQzLb87sxHn6YZHwGjyhh+2B8pWJtrK/me8hDBjPT/ysgpiUL/vQMMymmLkg
m9sx6kEP/P4U9FqaSamgABuY8UFmeTkEkdfEcOik9mEMihp5yvsZQFEKPecZ17fn
eu6xxcCbGS3NoamK179YLExSTAZxy2ljRT95EhYSc76yOHTASBCiUDYz7gj1Qt9H
cNomfB0h60fZY6ER0TFgjkIwGaPzLas3nS6MEVg=
-----END CERTIFICATE REQUEST-----
