Certificate:
    Data:
        Version: 3 (0x2)
        Serial Number: 0 (0x0)
    Signature Algorithm: sha512WithRSAEncryption
        Issuer: C=BR, ST=Rio de Janeiro, L=Mage, O=Qzumba - security chat relay, OU=Security, CN=zumbi.loc/emailAddress=admin@zumbi.loc
        Validity
            Not Before: Nov 23 20:10:22 2015 GMT
            Not After : Nov 22 20:10:22 2016 GMT
        Subject: C=BR, ST=Rio de Janeiro, L=Mage, O=Qzumba - security chat relay, OU=Security, CN=zumbi.loc/emailAddress=admin@zumbi.loc
        Subject Public Key Info:
            Public Key Algorithm: rsaEncryption
                Public-Key: (2048 bit)
                Modulus:
                    00:b3:de:2e:3e:5d:93:99:fd:d6:a7:82:c7:27:1e:
                    4d:22:70:a2:91:2a:02:47:27:cc:aa:3b:ac:11:06:
                    c8:94:ff:69:53:16:ee:3e:0f:c6:15:8e:92:63:e2:
                    bb:2b:ed:01:81:bc:e4:1d:1c:d7:3d:59:b8:bf:92:
                    1e:53:5f:11:f2:b1:13:eb:04:83:78:9e:4f:6e:ef:
                    11:f1:df:ae:99:b2:51:53:b5:c8:ec:45:21:88:bb:
                    9f:ca:86:95:58:8a:f4:5a:8a:fe:65:86:69:e8:37:
                    8a:31:8d:5c:e8:44:8f:94:ed:aa:cf:b7:d5:9f:5d:
                    b9:35:68:ae:84:89:51:ea:37:f4:61:93:bf:e4:46:
                    63:34:4c:e8:22:e0:89:89:70:1f:59:f5:f7:ba:d1:
                    f3:f0:43:2e:76:89:a8:ee:ec:3e:ed:a3:c6:7d:8c:
                    c0:72:44:eb:b4:cb:9e:a7:4b:41:31:87:e5:ff:70:
                    c2:ee:bd:ea:d9:44:7f:a1:32:52:5e:9e:93:e8:ed:
                    57:63:13:cb:77:ff:7f:cd:c0:08:fb:dc:27:9d:ca:
                    a4:78:6e:b6:6b:a8:23:9e:76:b7:ef:ec:db:29:e4:
                    c5:52:3a:e3:e1:23:25:78:8a:48:59:9f:5a:a2:4c:
                    0a:ed:f3:32:6f:d3:10:a0:13:72:a6:62:8e:f6:3f:
                    9e:5f
                Exponent: 65537 (0x10001)
        X509v3 extensions:
            X509v3 Subject Key Identifier: 
                55:95:83:FD:96:3F:C7:41:AD:CE:2B:1A:98:18:3D:D6:16:00:21:A5
            X509v3 Authority Key Identifier: 
                keyid:55:95:83:FD:96:3F:C7:41:AD:CE:2B:1A:98:18:3D:D6:16:00:21:A5

            X509v3 Basic Constraints: 
                CA:TRUE
    Signature Algorithm: sha512WithRSAEncryption
         a1:25:93:3d:b5:34:58:c0:6b:04:20:99:95:0a:7e:51:4c:12:
         d9:9f:aa:d9:18:05:c0:9d:a9:66:4f:11:d6:bc:f7:58:7f:e6:
         83:b2:86:e6:f9:9a:b6:2f:6c:cf:91:f7:b0:ff:41:b4:7f:e2:
         1d:7a:b9:0b:8c:8b:b1:9a:c0:a8:ec:d4:62:04:04:24:09:ab:
         66:ff:c5:fb:ef:73:8a:cd:b6:b9:a8:53:82:67:1a:1c:04:49:
         04:be:d6:ee:13:5c:ff:80:b7:a4:1d:dd:24:67:7e:6d:da:b8:
         58:7d:b2:98:0b:fe:91:37:ee:ec:4c:f0:1b:e9:c7:87:d7:e5:
         2b:b4:e8:ce:79:c5:fc:0f:b6:73:e9:df:24:15:2d:e0:f6:43:
         bb:05:94:36:aa:e2:a8:6e:28:f4:64:ef:c7:e0:5e:71:c5:e3:
         5d:75:df:39:fd:60:94:69:26:ea:72:f0:7c:3d:3b:c5:6e:15:
         ef:f0:dc:2e:88:fa:98:75:d9:07:86:8c:a5:87:0e:0f:e8:d9:
         6e:40:94:54:97:48:ef:8e:c2:95:6a:d8:9c:a7:56:fd:ba:53:
         95:60:dd:3b:f8:d4:df:b5:81:38:18:d5:6c:39:4b:8b:c2:e3:
         20:2a:5e:87:8a:b9:b7:0b:3c:0a:b6:c8:67:f9:65:ed:50:57:
         e5:c7:f2:5e
-----BEGIN CERTIFICATE-----
MIIEEzCCAvugAwIBAgIBADANBgkqhkiG9w0BAQ0FADCBozELMAkGA1UEBhMCQlIx
FzAVBgNVBAgMDlJpbyBkZSBKYW5laXJvMQ0wCwYDVQQHDARNYWdlMSUwIwYDVQQK
DBxRenVtYmEgLSBzZWN1cml0eSBjaGF0IHJlbGF5MREwDwYDVQQLDAhTZWN1cml0
eTESMBAGA1UEAwwJenVtYmkubG9jMR4wHAYJKoZIhvcNAQkBFg9hZG1pbkB6dW1i
aS5sb2MwHhcNMTUxMTIzMjAxMDIyWhcNMTYxMTIyMjAxMDIyWjCBozELMAkGA1UE
BhMCQlIxFzAVBgNVBAgMDlJpbyBkZSBKYW5laXJvMQ0wCwYDVQQHDARNYWdlMSUw
IwYDVQQKDBxRenVtYmEgLSBzZWN1cml0eSBjaGF0IHJlbGF5MREwDwYDVQQLDAhT
ZWN1cml0eTESMBAGA1UEAwwJenVtYmkubG9jMR4wHAYJKoZIhvcNAQkBFg9hZG1p
bkB6dW1iaS5sb2MwggEiMA0GCSqGSIb3DQEBAQUAA4IBDwAwggEKAoIBAQCz3i4+
XZOZ/dangscnHk0icKKRKgJHJ8yqO6wRBsiU/2lTFu4+D8YVjpJj4rsr7QGBvOQd
HNc9Wbi/kh5TXxHysRPrBIN4nk9u7xHx366ZslFTtcjsRSGIu5/KhpVYivRaiv5l
hmnoN4oxjVzoRI+U7arPt9WfXbk1aK6EiVHqN/Rhk7/kRmM0TOgi4ImJcB9Z9fe6
0fPwQy52iaju7D7to8Z9jMByROu0y56nS0Exh+X/cMLuverZRH+hMlJenpPo7Vdj
E8t3/3/NwAj73CedyqR4brZrqCOedrfv7Nsp5MVSOuPhIyV4ikhZn1qiTArt8zJv
0xCgE3KmYo72P55fAgMBAAGjUDBOMB0GA1UdDgQWBBRVlYP9lj/HQa3OKxqYGD3W
FgAhpTAfBgNVHSMEGDAWgBRVlYP9lj/HQa3OKxqYGD3WFgAhpTAMBgNVHRMEBTAD
AQH/MA0GCSqGSIb3DQEBDQUAA4IBAQChJZM9tTRYwGsEIJmVCn5RTBLZn6rZGAXA
nalmTxHWvPdYf+aDsobm+Zq2L2zPkfew/0G0f+IderkLjIuxmsCo7NRiBAQkCatm
/8X773OKzba5qFOCZxocBEkEvtbuE1z/gLekHd0kZ35t2rhYfbKYC/6RN+7sTPAb
6ceH1+UrtOjOecX8D7Zz6d8kFS3g9kO7BZQ2quKobij0ZO/H4F5xxeNddd85/WCU
aSbqcvB8PTvFbhXv8NwuiPqYddkHhoylhw4P6NluQJRUl0jvjsKVaticp1b9ulOV
YN07+NTftYE4GNVsOUuLwuMgKl6Hirm3CzwKtshn+WXtUFflx/Je
-----END CERTIFICATE-----
